; Function Attrs: nounwind uwtable
define dso_local ptr @SPI_copytuple(ptr noundef %0) local_unnamed_addr #0 {
  %2 = icmp eq ptr %0, null
  br i1 %2, label %3, label %4

3:                                                ; preds = %1
  store i32 -6, ptr @SPI_result, align 4
  br label %13

4:                                                ; preds = %1
  %5 = load ptr, ptr @_SPI_current, align 8
  %6 = icmp eq ptr %5, null
  br i1 %6, label %7, label %8

7:                                                ; preds = %4
  store i32 -4, ptr @SPI_result, align 4
  br label %13

8:                                                ; preds = %4
  %9 = getelementptr inbounds nuw i8, ptr %5, i64 48
  %10 = load ptr, ptr %9, align 8
  %11 = load ptr, ptr @CurrentMemoryContext, align 8
  store ptr %10, ptr @CurrentMemoryContext, align 8
  %12 = tail call ptr @heap_copytuple(ptr noundef nonnull %0) #15
  store ptr %11, ptr @CurrentMemoryContext, align 8
  br label %13

13:                                               ; preds = %8, %7, %3
  %.0 = phi ptr [ null, %3 ], [ null, %7 ], [ %12, %8 ]
  ret ptr %.0
}